; Function Attrs: mustprogress nofree nounwind willreturn memory(read, inaccessiblemem: none) uwtable
define dso_local noundef zeroext i1 @_ZNK21cmCTestLaunchReporter19MatchesFilterPrefixERKNSt7__cxx1112basic_stringIcSt11char_traitsIcESaIcEEE(ptr noundef nonnull readonly align 8 captures(none) dereferenceable(672) %0, ptr noundef nonnull readonly align 8 captures(none) dereferenceable(32) %1) local_unnamed_addr #8 align 2 personality ptr @__gxx_personality_v0 {
  %3 = getelementptr inbounds nuw i8, ptr %0, i64 232
  %4 = load i64, ptr %3, align 8, !tbaa !10
  %5 = icmp eq i64 %4, 0
  br i1 %5, label %_Z11cmHasPrefixSt17basic_string_viewIcSt11char_traitsIcEES2_.exit, label %6

6:                                                ; preds = %2
  %7 = getelementptr inbounds nuw i8, ptr %1, i64 8
  %8 = load i64, ptr %7, align 8, !tbaa !10
  %9 = icmp eq i64 %8, 0
  br i1 %9, label %_ZNSt11char_traitsIcE7compareEPKcS2_m.exit.thread.i.i.i, label %_ZNSt11char_traitsIcE7compareEPKcS2_m.exit.i.i.i

_ZNSt11char_traitsIcE7compareEPKcS2_m.exit.i.i.i: ; preds = %6
  %.sroa.speculated.i.i.i = tail call i64 @llvm.umin.i64(i64 %8, i64 %4)
  %10 = getelementptr inbounds nuw i8, ptr %0, i64 224
  %11 = load ptr, ptr %10, align 8, !tbaa !49
  %12 = load ptr, ptr %1, align 8, !tbaa !49
  %bcmp.i = tail call i32 @bcmp(ptr %12, ptr %11, i64 %.sroa.speculated.i.i.i)
  %13 = icmp eq i32 %bcmp.i, 0
  br i1 %13, label %_ZNSt11char_traitsIcE7compareEPKcS2_m.exit.thread.i.i.i, label %_Z11cmHasPrefixSt17basic_string_viewIcSt11char_traitsIcEES2_.exit

_ZNSt11char_traitsIcE7compareEPKcS2_m.exit.thread.i.i.i: ; preds = %_ZNSt11char_traitsIcE7compareEPKcS2_m.exit.i.i.i, %6
  %14 = icmp ule i64 %4, %8
  br label %_Z11cmHasPrefixSt17basic_string_viewIcSt11char_traitsIcEES2_.exit

_Z11cmHasPrefixSt17basic_string_viewIcSt11char_traitsIcEES2_.exit: ; preds = %_ZNSt11char_traitsIcE7compareEPKcS2_m.exit.thread.i.i.i, %_ZNSt11char_traitsIcE7compareEPKcS2_m.exit.i.i.i, %2
  %15 = phi i1 [ false, %2 ], [ %14, %_ZNSt11char_traitsIcE7compareEPKcS2_m.exit.thread.i.i.i ], [ false, %_ZNSt11char_traitsIcE7compareEPKcS2_m.exit.i.i.i ]
  ret i1 %15
}